---
triple:          'arm64-apple-darwin'
binary-path:     '/Users/leejunghoon/Documents/dev/TIL/C/kundol/data_structure/stack'
relocations:
  - { offsetInCU: 0x3F, offset: 0x3F, size: 0x8, addend: 0x0, symName: _stk, symObjAddr: 0x38468, symBinAddr: 0x10000C000, symSize: 0x0 }
  - { offsetInCU: 0x57E4, offset: 0x57E4, size: 0x8, addend: 0x0, symName: __ZNSt3__124__put_character_sequenceB7v160006IcNS_11char_traitsIcEEEERNS_13basic_ostreamIT_T0_EES7_PKS4_m, symObjAddr: 0x4034, symBinAddr: 0x100006BE0, symSize: 0x1EC }
  - { offsetInCU: 0x71FF, offset: 0x71FF, size: 0x8, addend: 0x0, symName: __ZNSt3__1lsB7v160006INS_11char_traitsIcEEEERNS_13basic_ostreamIcT_EES6_PKc, symObjAddr: 0x360, symBinAddr: 0x100002F0C, symSize: 0x48 }
  - { offsetInCU: 0x7245, offset: 0x7245, size: 0x8, addend: 0x0, symName: __ZNSt3__1lsB7v160006IcNS_11char_traitsIcEENS_9allocatorIcEEEERNS_13basic_ostreamIT_T0_EES9_RKNS_12basic_stringIS6_S7_T1_EE, symObjAddr: 0x3A8, symBinAddr: 0x100002F54, symSize: 0x4C }
  - { offsetInCU: 0x729D, offset: 0x729D, size: 0x8, addend: 0x0, symName: __ZNSt3__1neB7v160006ERKNS_16__deque_iteratorINS_12basic_stringIcNS_11char_traitsIcEENS_9allocatorIcEEEEPS6_RS6_PS7_lLl170EEESC_, symObjAddr: 0x8EC, symBinAddr: 0x100003498, symSize: 0x34 }
  - { offsetInCU: 0x72DA, offset: 0x72DA, size: 0x8, addend: 0x0, symName: __ZNSt3__1eqB7v160006ERKNS_16__deque_iteratorINS_12basic_stringIcNS_11char_traitsIcEENS_9allocatorIcEEEEPS6_RS6_PS7_lLl170EEESC_, symObjAddr: 0xB8C, symBinAddr: 0x100003738, symSize: 0x30 }
  - { offsetInCU: 0x7317, offset: 0x7317, size: 0x8, addend: 0x0, symName: __ZNSt3__119__libcpp_deallocateB7v160006EPvmm, symObjAddr: 0xCAC, symBinAddr: 0x100003858, symSize: 0x30 }
  - { offsetInCU: 0x735F, offset: 0x735F, size: 0x8, addend: 0x0, symName: __ZNSt3__127__do_deallocate_handle_sizeB7v160006IJEEEvPvmDpT_, symObjAddr: 0xCDC, symBinAddr: 0x100003888, symSize: 0x28 }
  - { offsetInCU: 0x739D, offset: 0x739D, size: 0x8, addend: 0x0, symName: __ZNSt3__124__libcpp_operator_deleteB7v160006IJPvEEEvDpT_, symObjAddr: 0xD04, symBinAddr: 0x1000038B0, symSize: 0x24 }
  - { offsetInCU: 0x73D2, offset: 0x73D2, size: 0x8, addend: 0x0, symName: __ZNSt3__112__to_addressB7v160006IPNS_12basic_stringIcNS_11char_traitsIcEENS_9allocatorIcEEEEEEPT_S9_, symObjAddr: 0xF88, symBinAddr: 0x100003B34, symSize: 0x14 }
  - { offsetInCU: 0x7407, offset: 0x7407, size: 0x8, addend: 0x0, symName: __ZNSt3__119__debug_db_insert_cB7v160006INS_12basic_stringIcNS_11char_traitsIcEENS_9allocatorIcEEEEEEvPT_, symObjAddr: 0x1158, symBinAddr: 0x100003D04, symSize: 0x10 }
  - { offsetInCU: 0x7438, offset: 0x7438, size: 0x8, addend: 0x0, symName: __ZNSt3__118__constexpr_strlenB7v160006EPKc, symObjAddr: 0x1224, symBinAddr: 0x100003DD0, symSize: 0x24 }
  - { offsetInCU: 0x7464, offset: 0x7464, size: 0x8, addend: 0x0, symName: __ZNSt3__13maxB7v160006ImEERKT_S3_S3_, symObjAddr: 0x21BC, symBinAddr: 0x100004D68, symSize: 0x2C }
  - { offsetInCU: 0x7900, offset: 0x7900, size: 0x8, addend: 0x0, symName: __ZNSt3__14swapB7v160006IPPNS_12basic_stringIcNS_11char_traitsIcEENS_9allocatorIcEEEEEENS_9enable_ifIXaasr21is_move_constructibleIT_EE5valuesr18is_move_assignableISA_EE5valueEvE4typeERSA_SD_, symObjAddr: 0x27CC, symBinAddr: 0x100005378, symSize: 0x3C }
  - { offsetInCU: 0x7951, offset: 0x7951, size: 0x8, addend: 0x0, symName: __ZNSt3__14moveB7v160006IPPNS_12basic_stringIcNS_11char_traitsIcEENS_9allocatorIcEEEES8_EET0_T_SA_S9_, symObjAddr: 0x28B0, symBinAddr: 0x10000545C, symSize: 0x40 }
  - { offsetInCU: 0x79C7, offset: 0x79C7, size: 0x8, addend: 0x0, symName: __ZNSt3__16__moveB7v160006INS_17_ClassicAlgPolicyEPPNS_12basic_stringIcNS_11char_traitsIcEENS_9allocatorIcEEEES9_S9_EENS_4pairIT0_T2_EESB_T1_SC_, symObjAddr: 0x2A54, symBinAddr: 0x100005600, symSize: 0x44 }
  - { offsetInCU: 0x7A33, offset: 0x7A33, size: 0x8, addend: 0x0, symName: __ZNSt3__123__dispatch_copy_or_moveB7v160006INS_17_ClassicAlgPolicyENS_11__move_loopIS1_EENS_14__move_trivialEPPNS_12basic_stringIcNS_11char_traitsIcEENS_9allocatorIcEEEESC_SC_EENS_4pairIT2_T4_EESE_T3_SF_, symObjAddr: 0x2A98, symBinAddr: 0x100005644, symSize: 0x44 }
  - { offsetInCU: 0x7AB1, offset: 0x7AB1, size: 0x8, addend: 0x0, symName: __ZNSt3__121__unwrap_and_dispatchB7v160006INS_10__overloadINS_11__move_loopINS_17_ClassicAlgPolicyEEENS_14__move_trivialEEEPPNS_12basic_stringIcNS_11char_traitsIcEENS_9allocatorIcEEEESE_SE_Li0EEENS_4pairIT0_T2_EESG_T1_SH_, symObjAddr: 0x2ADC, symBinAddr: 0x100005688, symSize: 0xB4 }
  - { offsetInCU: 0x7B3F, offset: 0x7B3F, size: 0x8, addend: 0x0, symName: __ZNSt3__114__unwrap_rangeB7v160006IPPNS_12basic_stringIcNS_11char_traitsIcEENS_9allocatorIcEEEES8_EENS_4pairIT0_SA_EET_SC_, symObjAddr: 0x2B90, symBinAddr: 0x10000573C, symSize: 0x60 }
  - { offsetInCU: 0x7D03, offset: 0x7D03, size: 0x8, addend: 0x0, symName: __ZNSt3__113__unwrap_iterB7v160006IPPNS_12basic_stringIcNS_11char_traitsIcEENS_9allocatorIcEEEENS_18__unwrap_iter_implIS8_Lb1EEELi0EEEDTclsrT0_8__unwrapclsr3stdE7declvalIT_EEEESC_, symObjAddr: 0x2C38, symBinAddr: 0x1000057E4, symSize: 0x24 }
  - { offsetInCU: 0x7D47, offset: 0x7D47, size: 0x8, addend: 0x0, symName: __ZNSt3__19make_pairB7v160006IPPNS_12basic_stringIcNS_11char_traitsIcEENS_9allocatorIcEEEES8_EENS_4pairINS_18__unwrap_ref_decayIT_E4typeENSA_IT0_E4typeEEEOSB_OSE_, symObjAddr: 0x2C5C, symBinAddr: 0x100005808, symSize: 0x38 }
  - { offsetInCU: 0x7D96, offset: 0x7D96, size: 0x8, addend: 0x0, symName: __ZNSt3__114__rewrap_rangeB7v160006IPPNS_12basic_stringIcNS_11char_traitsIcEENS_9allocatorIcEEEES8_EET_S9_T0_, symObjAddr: 0x2C94, symBinAddr: 0x100005840, symSize: 0x2C }
  - { offsetInCU: 0x7DE2, offset: 0x7DE2, size: 0x8, addend: 0x0, symName: __ZNSt3__113__rewrap_iterB7v160006IPPNS_12basic_stringIcNS_11char_traitsIcEENS_9allocatorIcEEEES8_NS_18__unwrap_iter_implIS8_Lb1EEEEET_SB_T0_, symObjAddr: 0x2CC0, symBinAddr: 0x10000586C, symSize: 0x3C }
  - { offsetInCU: 0x7E37, offset: 0x7E37, size: 0x8, addend: 0x0, symName: __ZNSt3__119__copy_trivial_implB7v160006IPNS_12basic_stringIcNS_11char_traitsIcEENS_9allocatorIcEEEES7_EENS_4pairIPT_PT0_EESA_SA_SC_, symObjAddr: 0x2CFC, symBinAddr: 0x1000058A8, symSize: 0x84 }
  - { offsetInCU: 0x7E9F, offset: 0x7E9F, size: 0x8, addend: 0x0, symName: __ZNSt3__19make_pairB7v160006IRPPNS_12basic_stringIcNS_11char_traitsIcEENS_9allocatorIcEEEES8_EENS_4pairINS_18__unwrap_ref_decayIT_E4typeENSB_IT0_E4typeEEEOSC_OSF_, symObjAddr: 0x2D80, symBinAddr: 0x10000592C, symSize: 0x38 }
  - { offsetInCU: 0x7F41, offset: 0x7F41, size: 0x8, addend: 0x0, symName: __ZNSt3__18distanceB7v160006INS_13move_iteratorIPPNS_12basic_stringIcNS_11char_traitsIcEENS_9allocatorIcEEEEEEEENS_15iterator_traitsIT_E15difference_typeESC_SC_, symObjAddr: 0x2F0C, symBinAddr: 0x100005AB8, symSize: 0x3C }
  - { offsetInCU: 0x7F84, offset: 0x7F84, size: 0x8, addend: 0x0, symName: __ZNSt3__110__distanceB7v160006INS_13move_iteratorIPPNS_12basic_stringIcNS_11char_traitsIcEENS_9allocatorIcEEEEEEEENS_15iterator_traitsIT_E15difference_typeESC_SC_NS_26random_access_iterator_tagE, symObjAddr: 0x3044, symBinAddr: 0x100005BF0, symSize: 0x30 }
  - { offsetInCU: 0x7FD1, offset: 0x7FD1, size: 0x8, addend: 0x0, symName: __ZNSt3__1miB7v160006IPPNS_12basic_stringIcNS_11char_traitsIcEENS_9allocatorIcEEEES8_EEDTmicldtfp_4baseEcldtfp0_4baseEERKNS_13move_iteratorIT_EERKNSA_IT0_EE, symObjAddr: 0x3074, symBinAddr: 0x100005C20, symSize: 0x48 }
  - { offsetInCU: 0x8020, offset: 0x8020, size: 0x8, addend: 0x0, symName: __ZNSt3__117__libcpp_allocateB7v160006Emm, symObjAddr: 0x329C, symBinAddr: 0x100005E48, symSize: 0x28 }
  - { offsetInCU: 0x805D, offset: 0x805D, size: 0x8, addend: 0x0, symName: __ZNSt3__121__libcpp_operator_newB7v160006IJmEEEPvDpT_, symObjAddr: 0x32DC, symBinAddr: 0x100005E88, symSize: 0x24 }
  - { offsetInCU: 0x8096, offset: 0x8096, size: 0x8, addend: 0x0, symName: __ZNSt3__113move_backwardB7v160006IPPNS_12basic_stringIcNS_11char_traitsIcEENS_9allocatorIcEEEES8_EET0_T_SA_S9_, symObjAddr: 0x3300, symBinAddr: 0x100005EAC, symSize: 0x40 }
  - { offsetInCU: 0x80F0, offset: 0x80F0, size: 0x8, addend: 0x0, symName: __ZNSt3__115__move_backwardB7v160006INS_17_ClassicAlgPolicyEPPNS_12basic_stringIcNS_11char_traitsIcEENS_9allocatorIcEEEES9_S9_EENS_4pairIT0_T2_EESB_T1_SC_, symObjAddr: 0x3340, symBinAddr: 0x100005EEC, symSize: 0x44 }
  - { offsetInCU: 0x815C, offset: 0x815C, size: 0x8, addend: 0x0, symName: __ZNSt3__123__dispatch_copy_or_moveB7v160006INS_17_ClassicAlgPolicyENS_20__move_backward_loopIS1_EENS_23__move_backward_trivialEPPNS_12basic_stringIcNS_11char_traitsIcEENS_9allocatorIcEEEESC_SC_EENS_4pairIT2_T4_EESE_T3_SF_, symObjAddr: 0x3384, symBinAddr: 0x100005F30, symSize: 0x44 }
  - { offsetInCU: 0x81DA, offset: 0x81DA, size: 0x8, addend: 0x0, symName: __ZNSt3__121__unwrap_and_dispatchB7v160006INS_10__overloadINS_20__move_backward_loopINS_17_ClassicAlgPolicyEEENS_23__move_backward_trivialEEEPPNS_12basic_stringIcNS_11char_traitsIcEENS_9allocatorIcEEEESE_SE_Li0EEENS_4pairIT0_T2_EESG_T1_SH_, symObjAddr: 0x33C8, symBinAddr: 0x100005F74, symSize: 0xB4 }
  - { offsetInCU: 0x82AE, offset: 0x82AE, size: 0x8, addend: 0x0, symName: __ZNSt3__128__copy_backward_trivial_implB7v160006IPNS_12basic_stringIcNS_11char_traitsIcEENS_9allocatorIcEEEES7_EENS_4pairIPT_PT0_EESA_SA_SC_, symObjAddr: 0x34C4, symBinAddr: 0x100006070, symSize: 0x94 }
  - { offsetInCU: 0x8316, offset: 0x8316, size: 0x8, addend: 0x0, symName: __ZNSt3__19make_pairB7v160006IRPPNS_12basic_stringIcNS_11char_traitsIcEENS_9allocatorIcEEEES9_EENS_4pairINS_18__unwrap_ref_decayIT_E4typeENSB_IT0_E4typeEEEOSC_OSF_, symObjAddr: 0x3558, symBinAddr: 0x100006104, symSize: 0x38 }
  - { offsetInCU: 0x8365, offset: 0x8365, size: 0x8, addend: 0x0, symName: __ZNSt3__13maxB7v160006ImNS_6__lessImmEEEERKT_S5_S5_T0_, symObjAddr: 0x3600, symBinAddr: 0x1000061AC, symSize: 0x54 }
  - { offsetInCU: 0x83FA, offset: 0x83FA, size: 0x8, addend: 0x0, symName: __ZNSt3__119__allocate_at_leastB7v160006INS_9allocatorIPNS_12basic_stringIcNS_11char_traitsIcEENS1_IcEEEEEEEENS_19__allocation_resultINS_16allocator_traitsIT_E7pointerEEERSB_m, symObjAddr: 0x3798, symBinAddr: 0x100006344, symSize: 0x40 }
  - { offsetInCU: 0x843D, offset: 0x843D, size: 0x8, addend: 0x0, symName: __ZNSt3__115__debug_db_swapB7v160006INS_12basic_stringIcNS_11char_traitsIcEENS_9allocatorIcEEEEEEvPT_S8_, symObjAddr: 0x3F40, symBinAddr: 0x100006AEC, symSize: 0x14 }
  - { offsetInCU: 0x847C, offset: 0x847C, size: 0x8, addend: 0x0, symName: __ZNSt3__116__pad_and_outputB7v160006IcNS_11char_traitsIcEEEENS_19ostreambuf_iteratorIT_T0_EES6_PKS4_S8_S8_RNS_8ios_baseES4_, symObjAddr: 0x42B8, symBinAddr: 0x100006E64, symSize: 0x240 }
  - { offsetInCU: 0x854B, offset: 0x854B, size: 0x8, addend: 0x0, symName: __ZNSt3__19use_facetB7v160006INS_5ctypeIcEEEERKT_RKNS_6localeE, symObjAddr: 0x484C, symBinAddr: 0x1000073F8, symSize: 0x2C }
  - { offsetInCU: 0x8A1A, offset: 0x8A1A, size: 0x8, addend: 0x0, symName: __ZNSt3__112__to_addressB7v160006IKcEEPT_S3_, symObjAddr: 0x48E4, symBinAddr: 0x100007490, symSize: 0x14 }
  - { offsetInCU: 0x8A82, offset: 0x8A82, size: 0x8, addend: 0x0, symName: __ZNSt3__112__to_addressB7v160006INS_12basic_stringIcNS_11char_traitsIcEENS_9allocatorIcEEEEEEPT_S8_, symObjAddr: 0x4ACC, symBinAddr: 0x100007678, symSize: 0x14 }
  - { offsetInCU: 0x8C63, offset: 0x8C63, size: 0x8, addend: 0x0, symName: __ZSt28__throw_bad_array_new_lengthB7v160006v, symObjAddr: 0x3268, symBinAddr: 0x100005E14, symSize: 0x34 }
  - { offsetInCU: 0xB778, offset: 0xB778, size: 0x8, addend: 0x0, symName: __ZNSt3__15stackINS_12basic_stringIcNS_11char_traitsIcEENS_9allocatorIcEEEENS_5dequeIS6_NS4_IS6_EEEEEC1B7v160006Ev, symObjAddr: 0x0, symBinAddr: 0x100002BAC, symSize: 0x2C }
  - { offsetInCU: 0xB7A2, offset: 0xB7A2, size: 0x8, addend: 0x0, symName: __ZNSt3__15stackINS_12basic_stringIcNS_11char_traitsIcEENS_9allocatorIcEEEENS_5dequeIS6_NS4_IS6_EEEEED1Ev, symObjAddr: 0x2C, symBinAddr: 0x100002BD8, symSize: 0x2C }
  - { offsetInCU: 0xB7CE, offset: 0xB7CE, size: 0x8, addend: 0x0, symName: _main, symObjAddr: 0x58, symBinAddr: 0x100002C04, symSize: 0x258 }
  - { offsetInCU: 0xB7E8, offset: 0xB7E8, size: 0x8, addend: 0x0, symName: __ZNSt3__19basic_iosIcNS_11char_traitsIcEEE3tieB7v160006EPNS_13basic_ostreamIcS2_EE, symObjAddr: 0x2B0, symBinAddr: 0x100002E5C, symSize: 0x2C }
  - { offsetInCU: 0xB82E, offset: 0xB82E, size: 0x8, addend: 0x0, symName: __ZNSt3__15stackINS_12basic_stringIcNS_11char_traitsIcEENS_9allocatorIcEEEENS_5dequeIS6_NS4_IS6_EEEEE4pushB7v160006EOS6_, symObjAddr: 0x2DC, symBinAddr: 0x100002E88, symSize: 0x2C }
  - { offsetInCU: 0xB867, offset: 0xB867, size: 0x8, addend: 0x0, symName: __ZNSt3__112basic_stringIcNS_11char_traitsIcEENS_9allocatorIcEEEC1B7v160006IDnEEPKc, symObjAddr: 0x308, symBinAddr: 0x100002EB4, symSize: 0x34 }
  - { offsetInCU: 0xB8A5, offset: 0xB8A5, size: 0x8, addend: 0x0, symName: __ZNKSt3__15stackINS_12basic_stringIcNS_11char_traitsIcEENS_9allocatorIcEEEENS_5dequeIS6_NS4_IS6_EEEEE4sizeB7v160006Ev, symObjAddr: 0x33C, symBinAddr: 0x100002EE8, symSize: 0x24 }
  - { offsetInCU: 0xB8CB, offset: 0xB8CB, size: 0x8, addend: 0x0, symName: __ZNSt3__15stackINS_12basic_stringIcNS_11char_traitsIcEENS_9allocatorIcEEEENS_5dequeIS6_NS4_IS6_EEEEE3topB7v160006Ev, symObjAddr: 0x3F4, symBinAddr: 0x100002FA0, symSize: 0x24 }
  - { offsetInCU: 0xB8F1, offset: 0xB8F1, size: 0x8, addend: 0x0, symName: __ZNSt3__15stackINS_12basic_stringIcNS_11char_traitsIcEENS_9allocatorIcEEEENS_5dequeIS6_NS4_IS6_EEEEE3popB7v160006Ev, symObjAddr: 0x418, symBinAddr: 0x100002FC4, symSize: 0x24 }
  - { offsetInCU: 0xB917, offset: 0xB917, size: 0x8, addend: 0x0, symName: __ZNSt3__15stackINS_12basic_stringIcNS_11char_traitsIcEENS_9allocatorIcEEEENS_5dequeIS6_NS4_IS6_EEEEED2Ev, symObjAddr: 0x43C, symBinAddr: 0x100002FE8, symSize: 0x2C }
  - { offsetInCU: 0xB943, offset: 0xB943, size: 0x8, addend: 0x0, symName: __ZNSt3__15dequeINS_12basic_stringIcNS_11char_traitsIcEENS_9allocatorIcEEEENS4_IS6_EEED1B7v160006Ev, symObjAddr: 0x468, symBinAddr: 0x100003014, symSize: 0x2C }
  - { offsetInCU: 0xB96D, offset: 0xB96D, size: 0x8, addend: 0x0, symName: __ZNSt3__15dequeINS_12basic_stringIcNS_11char_traitsIcEENS_9allocatorIcEEEENS4_IS6_EEED2B7v160006Ev, symObjAddr: 0x494, symBinAddr: 0x100003040, symSize: 0x9C }
  - { offsetInCU: 0xB9C4, offset: 0xB9C4, size: 0x8, addend: 0x0, symName: __ZNSt3__15dequeINS_12basic_stringIcNS_11char_traitsIcEENS_9allocatorIcEEEENS4_IS6_EEE5clearEv, symObjAddr: 0x530, symBinAddr: 0x1000030DC, symSize: 0x180 }
  - { offsetInCU: 0xBA1F, offset: 0xBA1F, size: 0x8, addend: 0x0, symName: __ZNSt3__114__split_bufferIPNS_12basic_stringIcNS_11char_traitsIcEENS_9allocatorIcEEEENS4_IS7_EEE5beginB7v160006Ev, symObjAddr: 0x6B0, symBinAddr: 0x10000325C, symSize: 0x18 }
  - { offsetInCU: 0xBA45, offset: 0xBA45, size: 0x8, addend: 0x0, symName: __ZNSt3__114__split_bufferIPNS_12basic_stringIcNS_11char_traitsIcEENS_9allocatorIcEEEENS4_IS7_EEE3endB7v160006Ev, symObjAddr: 0x6C8, symBinAddr: 0x100003274, symSize: 0x18 }
  - { offsetInCU: 0xBA6B, offset: 0xBA6B, size: 0x8, addend: 0x0, symName: __ZNSt3__116allocator_traitsINS_9allocatorINS_12basic_stringIcNS_11char_traitsIcEENS1_IcEEEEEEE10deallocateB7v160006ERS7_PS6_m, symObjAddr: 0x6E0, symBinAddr: 0x10000328C, symSize: 0x34 }
  - { offsetInCU: 0xBAAD, offset: 0xBAAD, size: 0x8, addend: 0x0, symName: __ZNSt3__15dequeINS_12basic_stringIcNS_11char_traitsIcEENS_9allocatorIcEEEENS4_IS6_EEE7__allocB7v160006Ev, symObjAddr: 0x714, symBinAddr: 0x1000032C0, symSize: 0x28 }
  - { offsetInCU: 0xBAD3, offset: 0xBAD3, size: 0x8, addend: 0x0, symName: __ZNSt3__114__split_bufferIPNS_12basic_stringIcNS_11char_traitsIcEENS_9allocatorIcEEEENS4_IS7_EEED1Ev, symObjAddr: 0x73C, symBinAddr: 0x1000032E8, symSize: 0x2C }
  - { offsetInCU: 0xBAFF, offset: 0xBAFF, size: 0x8, addend: 0x0, symName: __ZNSt3__15dequeINS_12basic_stringIcNS_11char_traitsIcEENS_9allocatorIcEEEENS4_IS6_EEE5beginB7v160006Ev, symObjAddr: 0x768, symBinAddr: 0x100003314, symSize: 0xC0 }
  - { offsetInCU: 0xBB34, offset: 0xBB34, size: 0x8, addend: 0x0, symName: __ZNSt3__15dequeINS_12basic_stringIcNS_11char_traitsIcEENS_9allocatorIcEEEENS4_IS6_EEE3endB7v160006Ev, symObjAddr: 0x828, symBinAddr: 0x1000033D4, symSize: 0xC4 }
  - { offsetInCU: 0xBB78, offset: 0xBB78, size: 0x8, addend: 0x0, symName: __ZNSt3__116allocator_traitsINS_9allocatorINS_12basic_stringIcNS_11char_traitsIcEENS1_IcEEEEEEE7destroyB7v160006IS6_vEEvRS7_PT_, symObjAddr: 0x92C, symBinAddr: 0x1000034D8, symSize: 0x2C }
  - { offsetInCU: 0xBBB5, offset: 0xBBB5, size: 0x8, addend: 0x0, symName: __ZNKSt3__116__deque_iteratorINS_12basic_stringIcNS_11char_traitsIcEENS_9allocatorIcEEEEPS6_RS6_PS7_lLl170EEdeB7v160006Ev, symObjAddr: 0x958, symBinAddr: 0x100003504, symSize: 0x18 }
  - { offsetInCU: 0xBBDB, offset: 0xBBDB, size: 0x8, addend: 0x0, symName: __ZNSt3__116__deque_iteratorINS_12basic_stringIcNS_11char_traitsIcEENS_9allocatorIcEEEEPS6_RS6_PS7_lLl170EEppB7v160006Ev, symObjAddr: 0x970, symBinAddr: 0x10000351C, symSize: 0x70 }
  - { offsetInCU: 0xBC01, offset: 0xBC01, size: 0x8, addend: 0x0, symName: __ZNSt3__15dequeINS_12basic_stringIcNS_11char_traitsIcEENS_9allocatorIcEEEENS4_IS6_EEE6__sizeB7v160006Ev, symObjAddr: 0x9E0, symBinAddr: 0x10000358C, symSize: 0x28 }
  - { offsetInCU: 0xBC27, offset: 0xBC27, size: 0x8, addend: 0x0, symName: __ZNKSt3__114__split_bufferIPNS_12basic_stringIcNS_11char_traitsIcEENS_9allocatorIcEEEENS4_IS7_EEE4sizeB7v160006Ev, symObjAddr: 0xA08, symBinAddr: 0x1000035B4, symSize: 0x28 }
  - { offsetInCU: 0xBC4D, offset: 0xBC4D, size: 0x8, addend: 0x0, symName: __ZNSt3__114__split_bufferIPNS_12basic_stringIcNS_11char_traitsIcEENS_9allocatorIcEEEENS4_IS7_EEE5frontB7v160006Ev, symObjAddr: 0xA30, symBinAddr: 0x1000035DC, symSize: 0x18 }
  - { offsetInCU: 0xBC73, offset: 0xBC73, size: 0x8, addend: 0x0, symName: __ZNSt3__114__split_bufferIPNS_12basic_stringIcNS_11char_traitsIcEENS_9allocatorIcEEEENS4_IS7_EEE9pop_frontB7v160006Ev, symObjAddr: 0xA48, symBinAddr: 0x1000035F4, symSize: 0x2C }
  - { offsetInCU: 0xBC99, offset: 0xBC99, size: 0x8, addend: 0x0, symName: __ZNKSt3__114__split_bufferIPNS_12basic_stringIcNS_11char_traitsIcEENS_9allocatorIcEEEENS4_IS7_EEE5emptyB7v160006Ev, symObjAddr: 0xA74, symBinAddr: 0x100003620, symSize: 0x28 }
  - { offsetInCU: 0xBCBF, offset: 0xBCBF, size: 0x8, addend: 0x0, symName: __ZNSt3__116__deque_iteratorINS_12basic_stringIcNS_11char_traitsIcEENS_9allocatorIcEEEEPS6_RS6_PS7_lLl170EEC1B7v160006ES9_S7_, symObjAddr: 0xA9C, symBinAddr: 0x100003648, symSize: 0x3C }
  - { offsetInCU: 0xBD07, offset: 0xBD07, size: 0x8, addend: 0x0, symName: __ZNSt3__116__deque_iteratorINS_12basic_stringIcNS_11char_traitsIcEENS_9allocatorIcEEEEPS6_RS6_PS7_lLl170EEC2B7v160006ES9_S7_, symObjAddr: 0xAD8, symBinAddr: 0x100003684, symSize: 0x2C }
  - { offsetInCU: 0xBD4F, offset: 0xBD4F, size: 0x8, addend: 0x0, symName: __ZNKSt3__15dequeINS_12basic_stringIcNS_11char_traitsIcEENS_9allocatorIcEEEENS4_IS6_EEE4sizeB7v160006Ev, symObjAddr: 0xB04, symBinAddr: 0x1000036B0, symSize: 0x28 }
  - { offsetInCU: 0xBD75, offset: 0xBD75, size: 0x8, addend: 0x0, symName: __ZNKSt3__15dequeINS_12basic_stringIcNS_11char_traitsIcEENS_9allocatorIcEEEENS4_IS6_EEE6__sizeB7v160006Ev, symObjAddr: 0xB2C, symBinAddr: 0x1000036D8, symSize: 0x28 }
  - { offsetInCU: 0xBD9B, offset: 0xBD9B, size: 0x8, addend: 0x0, symName: __ZNKSt3__117__compressed_pairImNS_9allocatorINS_12basic_stringIcNS_11char_traitsIcEENS1_IcEEEEEEE5firstB7v160006Ev, symObjAddr: 0xB54, symBinAddr: 0x100003700, symSize: 0x24 }
  - { offsetInCU: 0xBDC1, offset: 0xBDC1, size: 0x8, addend: 0x0, symName: __ZNKSt3__122__compressed_pair_elemImLi0ELb0EE5__getB7v160006Ev, symObjAddr: 0xB78, symBinAddr: 0x100003724, symSize: 0x14 }
  - { offsetInCU: 0xBDE7, offset: 0xBDE7, size: 0x8, addend: 0x0, symName: __ZNSt3__19allocatorINS_12basic_stringIcNS_11char_traitsIcEENS0_IcEEEEE7destroyB7v160006EPS5_, symObjAddr: 0xBBC, symBinAddr: 0x100003768, symSize: 0x28 }
  - { offsetInCU: 0xBE1B, offset: 0xBE1B, size: 0x8, addend: 0x0, symName: __ZNSt3__117__compressed_pairImNS_9allocatorINS_12basic_stringIcNS_11char_traitsIcEENS1_IcEEEEEEE5firstB7v160006Ev, symObjAddr: 0xBE4, symBinAddr: 0x100003790, symSize: 0x24 }
  - { offsetInCU: 0xBE41, offset: 0xBE41, size: 0x8, addend: 0x0, symName: __ZNSt3__122__compressed_pair_elemImLi0ELb0EE5__getB7v160006Ev, symObjAddr: 0xC08, symBinAddr: 0x1000037B4, symSize: 0x14 }
  - { offsetInCU: 0xBE67, offset: 0xBE67, size: 0x8, addend: 0x0, symName: __ZNSt3__114__split_bufferIPNS_12basic_stringIcNS_11char_traitsIcEENS_9allocatorIcEEEENS4_IS7_EEE19__destruct_at_beginB7v160006EPS7_, symObjAddr: 0xC1C, symBinAddr: 0x1000037C8, symSize: 0x2C }
  - { offsetInCU: 0xBE9B, offset: 0xBE9B, size: 0x8, addend: 0x0, symName: __ZNSt3__114__split_bufferIPNS_12basic_stringIcNS_11char_traitsIcEENS_9allocatorIcEEEENS4_IS7_EEE19__destruct_at_beginEPS7_NS_17integral_constantIbLb1EEE, symObjAddr: 0xC48, symBinAddr: 0x1000037F4, symSize: 0x20 }
  - { offsetInCU: 0xBEDB, offset: 0xBEDB, size: 0x8, addend: 0x0, symName: __ZNSt3__19allocatorINS_12basic_stringIcNS_11char_traitsIcEENS0_IcEEEEE10deallocateB7v160006EPS5_m, symObjAddr: 0xC68, symBinAddr: 0x100003814, symSize: 0x44 }
  - { offsetInCU: 0xBF1D, offset: 0xBF1D, size: 0x8, addend: 0x0, symName: __ZNSt3__117__compressed_pairImNS_9allocatorINS_12basic_stringIcNS_11char_traitsIcEENS1_IcEEEEEEE6secondB7v160006Ev, symObjAddr: 0xD28, symBinAddr: 0x1000038D4, symSize: 0x24 }
  - { offsetInCU: 0xBF43, offset: 0xBF43, size: 0x8, addend: 0x0, symName: __ZNSt3__122__compressed_pair_elemINS_9allocatorINS_12basic_stringIcNS_11char_traitsIcEENS1_IcEEEEEELi1ELb1EE5__getB7v160006Ev, symObjAddr: 0xD4C, symBinAddr: 0x1000038F8, symSize: 0x14 }
  - { offsetInCU: 0xBF69, offset: 0xBF69, size: 0x8, addend: 0x0, symName: __ZNSt3__114__split_bufferIPNS_12basic_stringIcNS_11char_traitsIcEENS_9allocatorIcEEEENS4_IS7_EEED2Ev, symObjAddr: 0xD60, symBinAddr: 0x10000390C, symSize: 0x8C }
  - { offsetInCU: 0xBF95, offset: 0xBF95, size: 0x8, addend: 0x0, symName: __ZNSt3__114__split_bufferIPNS_12basic_stringIcNS_11char_traitsIcEENS_9allocatorIcEEEENS4_IS7_EEE5clearB7v160006Ev, symObjAddr: 0xDEC, symBinAddr: 0x100003998, symSize: 0x28 }
  - { offsetInCU: 0xBFBB, offset: 0xBFBB, size: 0x8, addend: 0x0, symName: __ZNSt3__116allocator_traitsINS_9allocatorIPNS_12basic_stringIcNS_11char_traitsIcEENS1_IcEEEEEEE10deallocateB7v160006ERS8_PS7_m, symObjAddr: 0xE14, symBinAddr: 0x1000039C0, symSize: 0x34 }
  - { offsetInCU: 0xBFFD, offset: 0xBFFD, size: 0x8, addend: 0x0, symName: __ZNSt3__114__split_bufferIPNS_12basic_stringIcNS_11char_traitsIcEENS_9allocatorIcEEEENS4_IS7_EEE7__allocB7v160006Ev, symObjAddr: 0xE48, symBinAddr: 0x1000039F4, symSize: 0x28 }
  - { offsetInCU: 0xC023, offset: 0xC023, size: 0x8, addend: 0x0, symName: __ZNKSt3__114__split_bufferIPNS_12basic_stringIcNS_11char_traitsIcEENS_9allocatorIcEEEENS4_IS7_EEE8capacityB7v160006Ev, symObjAddr: 0xE70, symBinAddr: 0x100003A1C, symSize: 0x40 }
  - { offsetInCU: 0xC049, offset: 0xC049, size: 0x8, addend: 0x0, symName: __ZNSt3__114__split_bufferIPNS_12basic_stringIcNS_11char_traitsIcEENS_9allocatorIcEEEENS4_IS7_EEE17__destruct_at_endB7v160006EPS7_, symObjAddr: 0xEB0, symBinAddr: 0x100003A5C, symSize: 0x2C }
  - { offsetInCU: 0xC07D, offset: 0xC07D, size: 0x8, addend: 0x0, symName: __ZNSt3__114__split_bufferIPNS_12basic_stringIcNS_11char_traitsIcEENS_9allocatorIcEEEENS4_IS7_EEE17__destruct_at_endB7v160006EPS7_NS_17integral_constantIbLb0EEE, symObjAddr: 0xEDC, symBinAddr: 0x100003A88, symSize: 0x80 }
  - { offsetInCU: 0xC0BD, offset: 0xC0BD, size: 0x8, addend: 0x0, symName: __ZNSt3__116allocator_traitsINS_9allocatorIPNS_12basic_stringIcNS_11char_traitsIcEENS1_IcEEEEEEE7destroyB7v160006IS7_vEEvRS8_PT_, symObjAddr: 0xF5C, symBinAddr: 0x100003B08, symSize: 0x2C }
  - { offsetInCU: 0xC0FA, offset: 0xC0FA, size: 0x8, addend: 0x0, symName: __ZNSt3__19allocatorIPNS_12basic_stringIcNS_11char_traitsIcEENS0_IcEEEEE7destroyB7v160006EPS6_, symObjAddr: 0xF9C, symBinAddr: 0x100003B48, symSize: 0x14 }
  - { offsetInCU: 0xC12E, offset: 0xC12E, size: 0x8, addend: 0x0, symName: __ZNSt3__19allocatorIPNS_12basic_stringIcNS_11char_traitsIcEENS0_IcEEEEE10deallocateB7v160006EPS6_m, symObjAddr: 0xFB0, symBinAddr: 0x100003B5C, symSize: 0x40 }
  - { offsetInCU: 0xC170, offset: 0xC170, size: 0x8, addend: 0x0, symName: __ZNSt3__117__compressed_pairIPPNS_12basic_stringIcNS_11char_traitsIcEENS_9allocatorIcEEEENS4_IS7_EEE6secondB7v160006Ev, symObjAddr: 0xFF0, symBinAddr: 0x100003B9C, symSize: 0x24 }
  - { offsetInCU: 0xC196, offset: 0xC196, size: 0x8, addend: 0x0, symName: __ZNSt3__122__compressed_pair_elemINS_9allocatorIPNS_12basic_stringIcNS_11char_traitsIcEENS1_IcEEEEEELi1ELb1EE5__getB7v160006Ev, symObjAddr: 0x1014, symBinAddr: 0x100003BC0, symSize: 0x14 }
  - { offsetInCU: 0xC1BC, offset: 0xC1BC, size: 0x8, addend: 0x0, symName: __ZNKSt3__114__split_bufferIPNS_12basic_stringIcNS_11char_traitsIcEENS_9allocatorIcEEEENS4_IS7_EEE9__end_capB7v160006Ev, symObjAddr: 0x1028, symBinAddr: 0x100003BD4, symSize: 0x28 }
  - { offsetInCU: 0xC1E2, offset: 0xC1E2, size: 0x8, addend: 0x0, symName: __ZNKSt3__117__compressed_pairIPPNS_12basic_stringIcNS_11char_traitsIcEENS_9allocatorIcEEEENS4_IS7_EEE5firstB7v160006Ev, symObjAddr: 0x1050, symBinAddr: 0x100003BFC, symSize: 0x24 }
  - { offsetInCU: 0xC208, offset: 0xC208, size: 0x8, addend: 0x0, symName: __ZNKSt3__122__compressed_pair_elemIPPNS_12basic_stringIcNS_11char_traitsIcEENS_9allocatorIcEEEELi0ELb0EE5__getB7v160006Ev, symObjAddr: 0x1074, symBinAddr: 0x100003C20, symSize: 0x14 }
  - { offsetInCU: 0xC22E, offset: 0xC22E, size: 0x8, addend: 0x0, symName: __ZNSt3__112basic_stringIcNS_11char_traitsIcEENS_9allocatorIcEEEC2B7v160006IDnEEPKc, symObjAddr: 0x1088, symBinAddr: 0x100003C34, symSize: 0x60 }
  - { offsetInCU: 0xC271, offset: 0xC271, size: 0x8, addend: 0x0, symName: __ZNSt3__117__compressed_pairINS_12basic_stringIcNS_11char_traitsIcEENS_9allocatorIcEEE5__repES5_EC1B7v160006INS_18__default_init_tagESA_EEOT_OT0_, symObjAddr: 0x10E8, symBinAddr: 0x100003C94, symSize: 0x3C }
  - { offsetInCU: 0xC2C9, offset: 0xC2C9, size: 0x8, addend: 0x0, symName: __ZNSt3__111char_traitsIcE6lengthEPKc, symObjAddr: 0x1124, symBinAddr: 0x100003CD0, symSize: 0x34 }
  - { offsetInCU: 0xC2EC, offset: 0xC2EC, size: 0x8, addend: 0x0, symName: __ZNSt3__117__compressed_pairINS_12basic_stringIcNS_11char_traitsIcEENS_9allocatorIcEEE5__repES5_EC2B7v160006INS_18__default_init_tagESA_EEOT_OT0_, symObjAddr: 0x1168, symBinAddr: 0x100003D14, symSize: 0x3C }
  - { offsetInCU: 0xC344, offset: 0xC344, size: 0x8, addend: 0x0, symName: __ZNSt3__122__compressed_pair_elemINS_12basic_stringIcNS_11char_traitsIcEENS_9allocatorIcEEE5__repELi0ELb0EEC2B7v160006ENS_18__default_init_tagE, symObjAddr: 0x11A4, symBinAddr: 0x100003D50, symSize: 0x14 }
  - { offsetInCU: 0xC378, offset: 0xC378, size: 0x8, addend: 0x0, symName: __ZNSt3__122__compressed_pair_elemINS_9allocatorIcEELi1ELb1EEC2B7v160006ENS_18__default_init_tagE, symObjAddr: 0x11B8, symBinAddr: 0x100003D64, symSize: 0x2C }
  - { offsetInCU: 0xC3AC, offset: 0xC3AC, size: 0x8, addend: 0x0, symName: __ZNSt3__19allocatorIcEC2B7v160006Ev, symObjAddr: 0x11E4, symBinAddr: 0x100003D90, symSize: 0x2C }
  - { offsetInCU: 0xC3D6, offset: 0xC3D6, size: 0x8, addend: 0x0, symName: __ZNSt3__116__non_trivial_ifILb1ENS_9allocatorIcEEEC2B7v160006Ev, symObjAddr: 0x1210, symBinAddr: 0x100003DBC, symSize: 0x14 }
  - { offsetInCU: 0xC400, offset: 0xC400, size: 0x8, addend: 0x0, symName: __ZNSt3__15stackINS_12basic_stringIcNS_11char_traitsIcEENS_9allocatorIcEEEENS_5dequeIS6_NS4_IS6_EEEEEC2B7v160006Ev, symObjAddr: 0x1248, symBinAddr: 0x100003DF4, symSize: 0x2C }
  - { offsetInCU: 0xC42A, offset: 0xC42A, size: 0x8, addend: 0x0, symName: __ZNSt3__15dequeINS_12basic_stringIcNS_11char_traitsIcEENS_9allocatorIcEEEENS4_IS6_EEEC1B7v160006Ev, symObjAddr: 0x1274, symBinAddr: 0x100003E20, symSize: 0x2C }
  - { offsetInCU: 0xC454, offset: 0xC454, size: 0x8, addend: 0x0, symName: __ZNSt3__15dequeINS_12basic_stringIcNS_11char_traitsIcEENS_9allocatorIcEEEENS4_IS6_EEEC2B7v160006Ev, symObjAddr: 0x12A0, symBinAddr: 0x100003E4C, symSize: 0x50 }
  - { offsetInCU: 0xC47E, offset: 0xC47E, size: 0x8, addend: 0x0, symName: __ZNSt3__114__split_bufferIPNS_12basic_stringIcNS_11char_traitsIcEENS_9allocatorIcEEEENS4_IS7_EEEC1Ev, symObjAddr: 0x12F0, symBinAddr: 0x100003E9C, symSize: 0x2C }
  - { offsetInCU: 0xC4AF, offset: 0xC4AF, size: 0x8, addend: 0x0, symName: __ZNSt3__117__compressed_pairImNS_9allocatorINS_12basic_stringIcNS_11char_traitsIcEENS1_IcEEEEEEEC1B7v160006IiNS_18__default_init_tagEEEOT_OT0_, symObjAddr: 0x131C, symBinAddr: 0x100003EC8, symSize: 0x3C }
  - { offsetInCU: 0xC507, offset: 0xC507, size: 0x8, addend: 0x0, symName: __ZNSt3__114__split_bufferIPNS_12basic_stringIcNS_11char_traitsIcEENS_9allocatorIcEEEENS4_IS7_EEEC2Ev, symObjAddr: 0x1358, symBinAddr: 0x100003F04, symSize: 0x50 }
  - { offsetInCU: 0xC538, offset: 0xC538, size: 0x8, addend: 0x0, symName: __ZNSt3__117__compressed_pairIPPNS_12basic_stringIcNS_11char_traitsIcEENS_9allocatorIcEEEENS4_IS7_EEEC1B7v160006IDnNS_18__default_init_tagEEEOT_OT0_, symObjAddr: 0x13A8, symBinAddr: 0x100003F54, symSize: 0x3C }
  - { offsetInCU: 0xC590, offset: 0xC590, size: 0x8, addend: 0x0, symName: __ZNSt3__117__compressed_pairIPPNS_12basic_stringIcNS_11char_traitsIcEENS_9allocatorIcEEEENS4_IS7_EEEC2B7v160006IDnNS_18__default_init_tagEEEOT_OT0_, symObjAddr: 0x13E4, symBinAddr: 0x100003F90, symSize: 0x40 }
  - { offsetInCU: 0xC5E8, offset: 0xC5E8, size: 0x8, addend: 0x0, symName: __ZNSt3__122__compressed_pair_elemIPPNS_12basic_stringIcNS_11char_traitsIcEENS_9allocatorIcEEEELi0ELb0EEC2B7v160006IDnvEEOT_, symObjAddr: 0x1424, symBinAddr: 0x100003FD0, symSize: 0x1C }
  - { offsetInCU: 0xC62A, offset: 0xC62A, size: 0x8, addend: 0x0, symName: __ZNSt3__122__compressed_pair_elemINS_9allocatorIPNS_12basic_stringIcNS_11char_traitsIcEENS1_IcEEEEEELi1ELb1EEC2B7v160006ENS_18__default_init_tagE, symObjAddr: 0x1440, symBinAddr: 0x100003FEC, symSize: 0x2C }
  - { offsetInCU: 0xC65E, offset: 0xC65E, size: 0x8, addend: 0x0, symName: __ZNSt3__19allocatorIPNS_12basic_stringIcNS_11char_traitsIcEENS0_IcEEEEEC2B7v160006Ev, symObjAddr: 0x146C, symBinAddr: 0x100004018, symSize: 0x2C }
  - { offsetInCU: 0xC688, offset: 0xC688, size: 0x8, addend: 0x0, symName: __ZNSt3__116__non_trivial_ifILb1ENS_9allocatorIPNS_12basic_stringIcNS_11char_traitsIcEENS1_IcEEEEEEEC2B7v160006Ev, symObjAddr: 0x1498, symBinAddr: 0x100004044, symSize: 0x14 }
  - { offsetInCU: 0xC6B2, offset: 0xC6B2, size: 0x8, addend: 0x0, symName: __ZNSt3__117__compressed_pairImNS_9allocatorINS_12basic_stringIcNS_11char_traitsIcEENS1_IcEEEEEEEC2B7v160006IiNS_18__default_init_tagEEEOT_OT0_, symObjAddr: 0x14AC, symBinAddr: 0x100004058, symSize: 0x40 }
  - { offsetInCU: 0xC70A, offset: 0xC70A, size: 0x8, addend: 0x0, symName: __ZNSt3__122__compressed_pair_elemImLi0ELb0EEC2B7v160006IivEEOT_, symObjAddr: 0x14EC, symBinAddr: 0x100004098, symSize: 0x24 }
  - { offsetInCU: 0xC74C, offset: 0xC74C, size: 0x8, addend: 0x0, symName: __ZNSt3__122__compressed_pair_elemINS_9allocatorINS_12basic_stringIcNS_11char_traitsIcEENS1_IcEEEEEELi1ELb1EEC2B7v160006ENS_18__default_init_tagE, symObjAddr: 0x1510, symBinAddr: 0x1000040BC, symSize: 0x2C }
  - { offsetInCU: 0xC780, offset: 0xC780, size: 0x8, addend: 0x0, symName: __ZNSt3__19allocatorINS_12basic_stringIcNS_11char_traitsIcEENS0_IcEEEEEC2B7v160006Ev, symObjAddr: 0x153C, symBinAddr: 0x1000040E8, symSize: 0x2C }
  - { offsetInCU: 0xC7AA, offset: 0xC7AA, size: 0x8, addend: 0x0, symName: __ZNSt3__116__non_trivial_ifILb1ENS_9allocatorINS_12basic_stringIcNS_11char_traitsIcEENS1_IcEEEEEEEC2B7v160006Ev, symObjAddr: 0x1568, symBinAddr: 0x100004114, symSize: 0x14 }
  - { offsetInCU: 0xC7D4, offset: 0xC7D4, size: 0x8, addend: 0x0, symName: __ZNSt3__15dequeINS_12basic_stringIcNS_11char_traitsIcEENS_9allocatorIcEEEENS4_IS6_EEE9push_backEOS6_, symObjAddr: 0x157C, symBinAddr: 0x100004128, symSize: 0xA0 }
  - { offsetInCU: 0xC81A, offset: 0xC81A, size: 0x8, addend: 0x0, symName: __ZNKSt3__15dequeINS_12basic_stringIcNS_11char_traitsIcEENS_9allocatorIcEEEENS4_IS6_EEE12__back_spareB7v160006Ev, symObjAddr: 0x161C, symBinAddr: 0x1000041C8, symSize: 0x54 }
  - { offsetInCU: 0xC840, offset: 0xC840, size: 0x8, addend: 0x0, symName: __ZNSt3__15dequeINS_12basic_stringIcNS_11char_traitsIcEENS_9allocatorIcEEEENS4_IS6_EEE19__add_back_capacityEv, symObjAddr: 0x1670, symBinAddr: 0x10000421C, symSize: 0x314 }
  - { offsetInCU: 0xC8FD, offset: 0xC8FD, size: 0x8, addend: 0x0, symName: __ZNSt3__116allocator_traitsINS_9allocatorINS_12basic_stringIcNS_11char_traitsIcEENS1_IcEEEEEEE9constructB7v160006IS6_JS6_EvEEvRS7_PT_DpOT0_, symObjAddr: 0x1984, symBinAddr: 0x100004530, symSize: 0x34 }
  - { offsetInCU: 0xC954, offset: 0xC954, size: 0x8, addend: 0x0, symName: __ZNKSt3__15dequeINS_12basic_stringIcNS_11char_traitsIcEENS_9allocatorIcEEEENS4_IS6_EEE10__capacityB7v160006Ev, symObjAddr: 0x19B8, symBinAddr: 0x100004564, symSize: 0x64 }
  - { offsetInCU: 0xC97A, offset: 0xC97A, size: 0x8, addend: 0x0, symName: __ZNKSt3__15dequeINS_12basic_stringIcNS_11char_traitsIcEENS_9allocatorIcEEEENS4_IS6_EEE13__front_spareB7v160006Ev, symObjAddr: 0x1A1C, symBinAddr: 0x1000045C8, symSize: 0x18 }
  - { offsetInCU: 0xC9A0, offset: 0xC9A0, size: 0x8, addend: 0x0, symName: __ZNSt3__114__split_bufferIPNS_12basic_stringIcNS_11char_traitsIcEENS_9allocatorIcEEEENS4_IS7_EEE9push_backB7v160006ERKS7_, symObjAddr: 0x1A34, symBinAddr: 0x1000045E0, symSize: 0x260 }
  - { offsetInCU: 0xCA19, offset: 0xCA19, size: 0x8, addend: 0x0, symName: __ZNKSt3__114__split_bufferIPNS_12basic_stringIcNS_11char_traitsIcEENS_9allocatorIcEEEENS4_IS7_EEE12__back_spareB7v160006Ev, symObjAddr: 0x1C94, symBinAddr: 0x100004840, symSize: 0x40 }
  - { offsetInCU: 0xCA3F, offset: 0xCA3F, size: 0x8, addend: 0x0, symName: __ZNSt3__114__split_bufferIPNS_12basic_stringIcNS_11char_traitsIcEENS_9allocatorIcEEEENS4_IS7_EEE9push_backEOS7_, symObjAddr: 0x1CD4, symBinAddr: 0x100004880, symSize: 0x260 }
  - { offsetInCU: 0xCAB8, offset: 0xCAB8, size: 0x8, addend: 0x0, symName: __ZNSt3__116allocator_traitsINS_9allocatorINS_12basic_stringIcNS_11char_traitsIcEENS1_IcEEEEEEE8allocateB7v160006ERS7_m, symObjAddr: 0x1F34, symBinAddr: 0x100004AE0, symSize: 0x2C }
  - { offsetInCU: 0xCAEB, offset: 0xCAEB, size: 0x8, addend: 0x0, symName: __ZNSt3__114__split_bufferIPNS_12basic_stringIcNS_11char_traitsIcEENS_9allocatorIcEEEENS4_IS7_EEE10push_frontEOS7_, symObjAddr: 0x1F60, symBinAddr: 0x100004B0C, symSize: 0x25C }
  - { offsetInCU: 0xCB64, offset: 0xCB64, size: 0x8, addend: 0x0, symName: __ZNSt3__114__split_bufferIPNS_12basic_stringIcNS_11char_traitsIcEENS_9allocatorIcEEEERNS4_IS7_EEEC1EmmS9_, symObjAddr: 0x21E8, symBinAddr: 0x100004D94, symSize: 0x44 }
  - { offsetInCU: 0xCBBF, offset: 0xCBBF, size: 0x8, addend: 0x0, symName: __ZNSt3__122__allocator_destructorINS_9allocatorINS_12basic_stringIcNS_11char_traitsIcEENS1_IcEEEEEEEC1B7v160006ERS7_m, symObjAddr: 0x222C, symBinAddr: 0x100004DD8, symSize: 0x3C }
  - { offsetInCU: 0xCC87, offset: 0xCC87, size: 0x8, addend: 0x0, symName: __ZNSt3__110unique_ptrIPNS_12basic_stringIcNS_11char_traitsIcEENS_9allocatorIcEEEENS_22__allocator_destructorINS4_IS6_EEEEEC1B7v160006ILb1EvEES7_NS_16__dependent_typeINS_27__unique_ptr_deleter_sfinaeISA_EEXT_EE20__good_rval_ref_typeE, symObjAddr: 0x2268, symBinAddr: 0x100004E14, symSize: 0x3C }
  - { offsetInCU: 0xCCD8, offset: 0xCCD8, size: 0x8, addend: 0x0, symName: __ZNSt3__114__split_bufferIPNS_12basic_stringIcNS_11char_traitsIcEENS_9allocatorIcEEEERNS4_IS7_EEE9push_backEOS7_, symObjAddr: 0x22A4, symBinAddr: 0x100004E50, symSize: 0x260 }
  - { offsetInCU: 0xCD51, offset: 0xCD51, size: 0x8, addend: 0x0, symName: __ZNKSt3__110unique_ptrIPNS_12basic_stringIcNS_11char_traitsIcEENS_9allocatorIcEEEENS_22__allocator_destructorINS4_IS6_EEEEE3getB7v160006Ev, symObjAddr: 0x2504, symBinAddr: 0x1000050B0, symSize: 0x28 }
  - { offsetInCU: 0xCD77, offset: 0xCD77, size: 0x8, addend: 0x0, symName: __ZNSt3__110unique_ptrIPNS_12basic_stringIcNS_11char_traitsIcEENS_9allocatorIcEEEENS_22__allocator_destructorINS4_IS6_EEEEE7releaseB7v160006Ev, symObjAddr: 0x252C, symBinAddr: 0x1000050D8, symSize: 0x44 }
  - { offsetInCU: 0xCDAC, offset: 0xCDAC, size: 0x8, addend: 0x0, symName: __ZNSt3__114__split_bufferIPNS_12basic_stringIcNS_11char_traitsIcEENS_9allocatorIcEEEERNS4_IS7_EEE10push_frontERKS7_, symObjAddr: 0x2570, symBinAddr: 0x10000511C, symSize: 0x25C }
  - { offsetInCU: 0xCE25, offset: 0xCE25, size: 0x8, addend: 0x0, symName: __ZNSt3__114__split_bufferIPNS_12basic_stringIcNS_11char_traitsIcEENS_9allocatorIcEEEENS4_IS7_EEE9__end_capB7v160006Ev, symObjAddr: 0x2808, symBinAddr: 0x1000053B4, symSize: 0x28 }
  - { offsetInCU: 0xCE4B, offset: 0xCE4B, size: 0x8, addend: 0x0, symName: __ZNSt3__114__split_bufferIPNS_12basic_stringIcNS_11char_traitsIcEENS_9allocatorIcEEEERNS4_IS7_EEE9__end_capB7v160006Ev, symObjAddr: 0x2830, symBinAddr: 0x1000053DC, symSize: 0x28 }
  - { offsetInCU: 0xCE71, offset: 0xCE71, size: 0x8, addend: 0x0, symName: __ZNSt3__110unique_ptrIPNS_12basic_stringIcNS_11char_traitsIcEENS_9allocatorIcEEEENS_22__allocator_destructorINS4_IS6_EEEEED1B7v160006Ev, symObjAddr: 0x2858, symBinAddr: 0x100005404, symSize: 0x2C }
  - { offsetInCU: 0xCE9B, offset: 0xCE9B, size: 0x8, addend: 0x0, symName: __ZNSt3__114__split_bufferIPNS_12basic_stringIcNS_11char_traitsIcEENS_9allocatorIcEEEERNS4_IS7_EEED1Ev, symObjAddr: 0x2884, symBinAddr: 0x100005430, symSize: 0x2C }
  - { offsetInCU: 0xCEC7, offset: 0xCEC7, size: 0x8, addend: 0x0, symName: __ZNSt3__114__split_bufferIPNS_12basic_stringIcNS_11char_traitsIcEENS_9allocatorIcEEEERNS4_IS7_EEE18__construct_at_endINS_13move_iteratorIPS7_EEEENS_9enable_ifIXsr27__is_cpp17_forward_iteratorIT_EE5valueEvE4typeESG_SG_, symObjAddr: 0x28F0, symBinAddr: 0x10000549C, symSize: 0xFC }
  - { offsetInCU: 0xCF23, offset: 0xCF23, size: 0x8, addend: 0x0, symName: __ZNSt3__113move_iteratorIPPNS_12basic_stringIcNS_11char_traitsIcEENS_9allocatorIcEEEEEC1B7v160006ES8_, symObjAddr: 0x29EC, symBinAddr: 0x100005598, symSize: 0x34 }
  - { offsetInCU: 0xCF60, offset: 0xCF60, size: 0x8, addend: 0x0, symName: __ZNSt3__116allocator_traitsINS_9allocatorIPNS_12basic_stringIcNS_11char_traitsIcEENS1_IcEEEEEEE9constructB7v160006IS7_JRKS7_EvEEvRS8_PT_DpOT0_, symObjAddr: 0x2A20, symBinAddr: 0x1000055CC, symSize: 0x34 }
  - { offsetInCU: 0xCFDA, offset: 0xCFDA, size: 0x8, addend: 0x0, symName: __ZNKSt3__114__move_trivialclB7v160006IPNS_12basic_stringIcNS_11char_traitsIcEENS_9allocatorIcEEEES8_Li0EEENS_4pairIPT_PT0_EESB_SB_SD_, symObjAddr: 0x2BF0, symBinAddr: 0x10000579C, symSize: 0x48 }
  - { offsetInCU: 0xD047, offset: 0xD047, size: 0x8, addend: 0x0, symName: __ZNSt3__14pairIPPNS_12basic_stringIcNS_11char_traitsIcEENS_9allocatorIcEEEES8_EC1B7v160006IRS8_S8_LPv0EEEOT_OT0_, symObjAddr: 0x2DB8, symBinAddr: 0x100005964, symSize: 0x3C }
  - { offsetInCU: 0xD0A5, offset: 0xD0A5, size: 0x8, addend: 0x0, symName: __ZNSt3__14pairIPPNS_12basic_stringIcNS_11char_traitsIcEENS_9allocatorIcEEEES8_EC2B7v160006IRS8_S8_LPv0EEEOT_OT0_, symObjAddr: 0x2DF4, symBinAddr: 0x1000059A0, symSize: 0x34 }
  - { offsetInCU: 0xD103, offset: 0xD103, size: 0x8, addend: 0x0, symName: __ZNSt3__118__unwrap_iter_implIPPNS_12basic_stringIcNS_11char_traitsIcEENS_9allocatorIcEEEELb1EE8__unwrapB7v160006ES8_, symObjAddr: 0x2E28, symBinAddr: 0x1000059D4, symSize: 0x24 }
  - { offsetInCU: 0xD126, offset: 0xD126, size: 0x8, addend: 0x0, symName: __ZNSt3__14pairIPPNS_12basic_stringIcNS_11char_traitsIcEENS_9allocatorIcEEEES8_EC1B7v160006IS8_S8_LPv0EEEOT_OT0_, symObjAddr: 0x2E4C, symBinAddr: 0x1000059F8, symSize: 0x3C }
  - { offsetInCU: 0xD184, offset: 0xD184, size: 0x8, addend: 0x0, symName: __ZNSt3__14pairIPPNS_12basic_stringIcNS_11char_traitsIcEENS_9allocatorIcEEEES8_EC2B7v160006IS8_S8_LPv0EEEOT_OT0_, symObjAddr: 0x2E88, symBinAddr: 0x100005A34, symSize: 0x34 }
  - { offsetInCU: 0xD1E2, offset: 0xD1E2, size: 0x8, addend: 0x0, symName: __ZNSt3__118__unwrap_iter_implIPPNS_12basic_stringIcNS_11char_traitsIcEENS_9allocatorIcEEEELb1EE8__rewrapB7v160006ES8_S8_, symObjAddr: 0x2EBC, symBinAddr: 0x100005A68, symSize: 0x50 }
  - { offsetInCU: 0xD21D, offset: 0xD21D, size: 0x8, addend: 0x0, symName: __ZNSt3__114__split_bufferIPNS_12basic_stringIcNS_11char_traitsIcEENS_9allocatorIcEEEERNS4_IS7_EEE21_ConstructTransactionC1B7v160006EPPS7_m, symObjAddr: 0x2F48, symBinAddr: 0x100005AF4, symSize: 0x3C }
  - { offsetInCU: 0xD263, offset: 0xD263, size: 0x8, addend: 0x0, symName: __ZNSt3__116allocator_traitsINS_9allocatorIPNS_12basic_stringIcNS_11char_traitsIcEENS1_IcEEEEEEE9constructB7v160006IS7_JS7_EvEEvRS8_PT_DpOT0_, symObjAddr: 0x2F84, symBinAddr: 0x100005B30, symSize: 0x34 }
  - { offsetInCU: 0xD2BA, offset: 0xD2BA, size: 0x8, addend: 0x0, symName: __ZNSt3__114__split_bufferIPNS_12basic_stringIcNS_11char_traitsIcEENS_9allocatorIcEEEERNS4_IS7_EEE7__allocB7v160006Ev, symObjAddr: 0x2FB8, symBinAddr: 0x100005B64, symSize: 0x28 }
  - { offsetInCU: 0xD2E0, offset: 0xD2E0, size: 0x8, addend: 0x0, symName: __ZNKSt3__113move_iteratorIPPNS_12basic_stringIcNS_11char_traitsIcEENS_9allocatorIcEEEEEdeB7v160006Ev, symObjAddr: 0x2FE0, symBinAddr: 0x100005B8C, symSize: 0x18 }
  - { offsetInCU: 0xD306, offset: 0xD306, size: 0x8, addend: 0x0, symName: __ZNSt3__113move_iteratorIPPNS_12basic_stringIcNS_11char_traitsIcEENS_9allocatorIcEEEEEppB7v160006Ev, symObjAddr: 0x2FF8, symBinAddr: 0x100005BA4, symSize: 0x20 }
  - { offsetInCU: 0xD32C, offset: 0xD32C, size: 0x8, addend: 0x0, symName: __ZNSt3__114__split_bufferIPNS_12basic_stringIcNS_11char_traitsIcEENS_9allocatorIcEEEERNS4_IS7_EEE21_ConstructTransactionD1B7v160006Ev, symObjAddr: 0x3018, symBinAddr: 0x100005BC4, symSize: 0x2C }
  - { offsetInCU: 0xD356, offset: 0xD356, size: 0x8, addend: 0x0, symName: __ZNKSt3__113move_iteratorIPPNS_12basic_stringIcNS_11char_traitsIcEENS_9allocatorIcEEEEE4baseB7v160006Ev, symObjAddr: 0x30BC, symBinAddr: 0x100005C68, symSize: 0x18 }
  - { offsetInCU: 0xD37C, offset: 0xD37C, size: 0x8, addend: 0x0, symName: __ZNSt3__114__split_bufferIPNS_12basic_stringIcNS_11char_traitsIcEENS_9allocatorIcEEEERNS4_IS7_EEE21_ConstructTransactionC2B7v160006EPPS7_m, symObjAddr: 0x30D4, symBinAddr: 0x100005C80, symSize: 0x44 }
  - { offsetInCU: 0xD3C2, offset: 0xD3C2, size: 0x8, addend: 0x0, symName: __ZNSt3__19allocatorIPNS_12basic_stringIcNS_11char_traitsIcEENS0_IcEEEEE9constructB7v160006IS6_JS6_EEEvPT_DpOT0_, symObjAddr: 0x3118, symBinAddr: 0x100005CC4, symSize: 0x28 }
  - { offsetInCU: 0xD418, offset: 0xD418, size: 0x8, addend: 0x0, symName: __ZNSt3__117__compressed_pairIPPNS_12basic_stringIcNS_11char_traitsIcEENS_9allocatorIcEEEERNS4_IS7_EEE6secondB7v160006Ev, symObjAddr: 0x3140, symBinAddr: 0x100005CEC, symSize: 0x28 }
  - { offsetInCU: 0xD43E, offset: 0xD43E, size: 0x8, addend: 0x0, symName: __ZNSt3__122__compressed_pair_elemIRNS_9allocatorIPNS_12basic_stringIcNS_11char_traitsIcEENS1_IcEEEEEELi1ELb0EE5__getB7v160006Ev, symObjAddr: 0x3168, symBinAddr: 0x100005D14, symSize: 0x18 }
  - { offsetInCU: 0xD464, offset: 0xD464, size: 0x8, addend: 0x0, symName: __ZNSt3__114__split_bufferIPNS_12basic_stringIcNS_11char_traitsIcEENS_9allocatorIcEEEERNS4_IS7_EEE21_ConstructTransactionD2B7v160006Ev, symObjAddr: 0x3180, symBinAddr: 0x100005D2C, symSize: 0x20 }
  - { offsetInCU: 0xD48E, offset: 0xD48E, size: 0x8, addend: 0x0, symName: __ZNSt3__113move_iteratorIPPNS_12basic_stringIcNS_11char_traitsIcEENS_9allocatorIcEEEEEC2B7v160006ES8_, symObjAddr: 0x31A0, symBinAddr: 0x100005D4C, symSize: 0x20 }
  - { offsetInCU: 0xD4C6, offset: 0xD4C6, size: 0x8, addend: 0x0, symName: __ZNSt3__19allocatorIPNS_12basic_stringIcNS_11char_traitsIcEENS0_IcEEEEE9constructB7v160006IS6_JRKS6_EEEvPT_DpOT0_, symObjAddr: 0x31C0, symBinAddr: 0x100005D6C, symSize: 0x28 }
  - { offsetInCU: 0xD51C, offset: 0xD51C, size: 0x8, addend: 0x0, symName: __ZNSt3__19allocatorINS_12basic_stringIcNS_11char_traitsIcEENS0_IcEEEEE8allocateB7v160006Em, symObjAddr: 0x31E8, symBinAddr: 0x100005D94, symSize: 0x5C }
  - { offsetInCU: 0xD55A, offset: 0xD55A, size: 0x8, addend: 0x0, symName: __ZNSt3__116allocator_traitsINS_9allocatorINS_12basic_stringIcNS_11char_traitsIcEENS1_IcEEEEEEE8max_sizeB7v160006IS7_vEEmRKS7_, symObjAddr: 0x3244, symBinAddr: 0x100005DF0, symSize: 0x24 }
  - { offsetInCU: 0xD588, offset: 0xD588, size: 0x8, addend: 0x0, symName: __ZNKSt3__19allocatorINS_12basic_stringIcNS_11char_traitsIcEENS0_IcEEEEE8max_sizeB7v160006Ev, symObjAddr: 0x32C4, symBinAddr: 0x100005E70, symSize: 0x18 }
  - { offsetInCU: 0xD5B8, offset: 0xD5B8, size: 0x8, addend: 0x0, symName: __ZNKSt3__123__move_backward_trivialclB7v160006IPNS_12basic_stringIcNS_11char_traitsIcEENS_9allocatorIcEEEES8_Li0EEENS_4pairIPT_PT0_EESB_SB_SD_, symObjAddr: 0x347C, symBinAddr: 0x100006028, symSize: 0x48 }
  - { offsetInCU: 0xD620, offset: 0xD620, size: 0x8, addend: 0x0, symName: __ZNSt3__14pairIPPNS_12basic_stringIcNS_11char_traitsIcEENS_9allocatorIcEEEES8_EC1B7v160006IRS8_SB_LPv0EEEOT_OT0_, symObjAddr: 0x3590, symBinAddr: 0x10000613C, symSize: 0x3C }
  - { offsetInCU: 0xD67E, offset: 0xD67E, size: 0x8, addend: 0x0, symName: __ZNSt3__14pairIPPNS_12basic_stringIcNS_11char_traitsIcEENS_9allocatorIcEEEES8_EC2B7v160006IRS8_SB_LPv0EEEOT_OT0_, symObjAddr: 0x35CC, symBinAddr: 0x100006178, symSize: 0x34 }
  - { offsetInCU: 0xD6E6, offset: 0xD6E6, size: 0x8, addend: 0x0, symName: __ZNKSt3__16__lessImmEclB7v160006ERKmS3_, symObjAddr: 0x3654, symBinAddr: 0x100006200, symSize: 0x34 }
  - { offsetInCU: 0xD728, offset: 0xD728, size: 0x8, addend: 0x0, symName: __ZNSt3__114__split_bufferIPNS_12basic_stringIcNS_11char_traitsIcEENS_9allocatorIcEEEERNS4_IS7_EEEC2EmmS9_, symObjAddr: 0x3688, symBinAddr: 0x100006234, symSize: 0xD4 }
  - { offsetInCU: 0xD79C, offset: 0xD79C, size: 0x8, addend: 0x0, symName: __ZNSt3__117__compressed_pairIPPNS_12basic_stringIcNS_11char_traitsIcEENS_9allocatorIcEEEERNS4_IS7_EEEC1B7v160006IDnSA_EEOT_OT0_, symObjAddr: 0x375C, symBinAddr: 0x100006308, symSize: 0x3C }
  - { offsetInCU: 0xD7F4, offset: 0xD7F4, size: 0x8, addend: 0x0, symName: __ZNSt3__117__compressed_pairIPPNS_12basic_stringIcNS_11char_traitsIcEENS_9allocatorIcEEEERNS4_IS7_EEEC2B7v160006IDnSA_EEOT_OT0_, symObjAddr: 0x37D8, symBinAddr: 0x100006384, symSize: 0x48 }
  - { offsetInCU: 0xD84C, offset: 0xD84C, size: 0x8, addend: 0x0, symName: __ZNSt3__122__compressed_pair_elemIRNS_9allocatorIPNS_12basic_stringIcNS_11char_traitsIcEENS1_IcEEEEEELi1ELb0EEC2B7v160006IS9_vEEOT_, symObjAddr: 0x3820, symBinAddr: 0x1000063CC, symSize: 0x20 }
  - { offsetInCU: 0xD88E, offset: 0xD88E, size: 0x8, addend: 0x0, symName: __ZNSt3__19allocatorIPNS_12basic_stringIcNS_11char_traitsIcEENS0_IcEEEEE8allocateB7v160006Em, symObjAddr: 0x3840, symBinAddr: 0x1000063EC, symSize: 0x58 }
  - { offsetInCU: 0xD8CC, offset: 0xD8CC, size: 0x8, addend: 0x0, symName: __ZNSt3__116allocator_traitsINS_9allocatorIPNS_12basic_stringIcNS_11char_traitsIcEENS1_IcEEEEEEE8max_sizeB7v160006IS8_vEEmRKS8_, symObjAddr: 0x3898, symBinAddr: 0x100006444, symSize: 0x24 }
  - { offsetInCU: 0xD8FA, offset: 0xD8FA, size: 0x8, addend: 0x0, symName: __ZNKSt3__19allocatorIPNS_12basic_stringIcNS_11char_traitsIcEENS0_IcEEEEE8max_sizeB7v160006Ev, symObjAddr: 0x38BC, symBinAddr: 0x100006468, symSize: 0x14 }
  - { offsetInCU: 0xD920, offset: 0xD920, size: 0x8, addend: 0x0, symName: __ZNSt3__122__allocator_destructorINS_9allocatorINS_12basic_stringIcNS_11char_traitsIcEENS1_IcEEEEEEEC2B7v160006ERS7_m, symObjAddr: 0x38D0, symBinAddr: 0x10000647C, symSize: 0x2C }
  - { offsetInCU: 0xD966, offset: 0xD966, size: 0x8, addend: 0x0, symName: __ZNSt3__110unique_ptrIPNS_12basic_stringIcNS_11char_traitsIcEENS_9allocatorIcEEEENS_22__allocator_destructorINS4_IS6_EEEEEC2B7v160006ILb1EvEES7_NS_16__dependent_typeINS_27__unique_ptr_deleter_sfinaeISA_EEXT_EE20__good_rval_ref_typeE, symObjAddr: 0x38FC, symBinAddr: 0x1000064A8, symSize: 0x48 }
  - { offsetInCU: 0xD9B7, offset: 0xD9B7, size: 0x8, addend: 0x0, symName: __ZNSt3__117__compressed_pairIPNS_12basic_stringIcNS_11char_traitsIcEENS_9allocatorIcEEEENS_22__allocator_destructorINS4_IS6_EEEEEC1B7v160006IRS7_SA_EEOT_OT0_, symObjAddr: 0x3944, symBinAddr: 0x1000064F0, symSize: 0x3C }
  - { offsetInCU: 0xDA0F, offset: 0xDA0F, size: 0x8, addend: 0x0, symName: __ZNSt3__117__compressed_pairIPNS_12basic_stringIcNS_11char_traitsIcEENS_9allocatorIcEEEENS_22__allocator_destructorINS4_IS6_EEEEEC2B7v160006IRS7_SA_EEOT_OT0_, symObjAddr: 0x3980, symBinAddr: 0x10000652C, symSize: 0x48 }
  - { offsetInCU: 0xDA67, offset: 0xDA67, size: 0x8, addend: 0x0, symName: __ZNSt3__122__compressed_pair_elemIPNS_12basic_stringIcNS_11char_traitsIcEENS_9allocatorIcEEEELi0ELb0EEC2B7v160006IRS7_vEEOT_, symObjAddr: 0x39C8, symBinAddr: 0x100006574, symSize: 0x24 }
  - { offsetInCU: 0xDAA9, offset: 0xDAA9, size: 0x8, addend: 0x0, symName: __ZNSt3__122__compressed_pair_elemINS_22__allocator_destructorINS_9allocatorINS_12basic_stringIcNS_11char_traitsIcEENS2_IcEEEEEEEELi1ELb0EEC2B7v160006IS9_vEEOT_, symObjAddr: 0x39EC, symBinAddr: 0x100006598, symSize: 0x24 }
  - { offsetInCU: 0xDAEB, offset: 0xDAEB, size: 0x8, addend: 0x0, symName: __ZNKSt3__117__compressed_pairIPNS_12basic_stringIcNS_11char_traitsIcEENS_9allocatorIcEEEENS_22__allocator_destructorINS4_IS6_EEEEE5firstB7v160006Ev, symObjAddr: 0x3A10, symBinAddr: 0x1000065BC, symSize: 0x24 }
  - { offsetInCU: 0xDB11, offset: 0xDB11, size: 0x8, addend: 0x0, symName: __ZNKSt3__122__compressed_pair_elemIPNS_12basic_stringIcNS_11char_traitsIcEENS_9allocatorIcEEEELi0ELb0EE5__getB7v160006Ev, symObjAddr: 0x3A34, symBinAddr: 0x1000065E0, symSize: 0x14 }
  - { offsetInCU: 0xDB37, offset: 0xDB37, size: 0x8, addend: 0x0, symName: __ZNSt3__117__compressed_pairIPNS_12basic_stringIcNS_11char_traitsIcEENS_9allocatorIcEEEENS_22__allocator_destructorINS4_IS6_EEEEE5firstB7v160006Ev, symObjAddr: 0x3A48, symBinAddr: 0x1000065F4, symSize: 0x24 }
  - { offsetInCU: 0xDB5D, offset: 0xDB5D, size: 0x8, addend: 0x0, symName: __ZNSt3__122__compressed_pair_elemIPNS_12basic_stringIcNS_11char_traitsIcEENS_9allocatorIcEEEELi0ELb0EE5__getB7v160006Ev, symObjAddr: 0x3A6C, symBinAddr: 0x100006618, symSize: 0x14 }
  - { offsetInCU: 0xDB83, offset: 0xDB83, size: 0x8, addend: 0x0, symName: __ZNSt3__117__compressed_pairIPPNS_12basic_stringIcNS_11char_traitsIcEENS_9allocatorIcEEEENS4_IS7_EEE5firstB7v160006Ev, symObjAddr: 0x3A80, symBinAddr: 0x10000662C, symSize: 0x24 }
  - { offsetInCU: 0xDBA9, offset: 0xDBA9, size: 0x8, addend: 0x0, symName: __ZNSt3__122__compressed_pair_elemIPPNS_12basic_stringIcNS_11char_traitsIcEENS_9allocatorIcEEEELi0ELb0EE5__getB7v160006Ev, symObjAddr: 0x3AA4, symBinAddr: 0x100006650, symSize: 0x14 }
  - { offsetInCU: 0xDBCF, offset: 0xDBCF, size: 0x8, addend: 0x0, symName: __ZNSt3__117__compressed_pairIPPNS_12basic_stringIcNS_11char_traitsIcEENS_9allocatorIcEEEERNS4_IS7_EEE5firstB7v160006Ev, symObjAddr: 0x3AB8, symBinAddr: 0x100006664, symSize: 0x24 }
  - { offsetInCU: 0xDBF5, offset: 0xDBF5, size: 0x8, addend: 0x0, symName: __ZNSt3__110unique_ptrIPNS_12basic_stringIcNS_11char_traitsIcEENS_9allocatorIcEEEENS_22__allocator_destructorINS4_IS6_EEEEED2B7v160006Ev, symObjAddr: 0x3ADC, symBinAddr: 0x100006688, symSize: 0x30 }
  - { offsetInCU: 0xDC1F, offset: 0xDC1F, size: 0x8, addend: 0x0, symName: __ZNSt3__110unique_ptrIPNS_12basic_stringIcNS_11char_traitsIcEENS_9allocatorIcEEEENS_22__allocator_destructorINS4_IS6_EEEEE5resetB7v160006ES7_, symObjAddr: 0x3B0C, symBinAddr: 0x1000066B8, symSize: 0x78 }
  - { offsetInCU: 0xDC63, offset: 0xDC63, size: 0x8, addend: 0x0, symName: __ZNSt3__117__compressed_pairIPNS_12basic_stringIcNS_11char_traitsIcEENS_9allocatorIcEEEENS_22__allocator_destructorINS4_IS6_EEEEE6secondB7v160006Ev, symObjAddr: 0x3B84, symBinAddr: 0x100006730, symSize: 0x28 }
  - { offsetInCU: 0xDC89, offset: 0xDC89, size: 0x8, addend: 0x0, symName: __ZNSt3__122__allocator_destructorINS_9allocatorINS_12basic_stringIcNS_11char_traitsIcEENS1_IcEEEEEEEclB7v160006EPS6_, symObjAddr: 0x3BAC, symBinAddr: 0x100006758, symSize: 0x34 }
  - { offsetInCU: 0xDCBD, offset: 0xDCBD, size: 0x8, addend: 0x0, symName: __ZNSt3__122__compressed_pair_elemINS_22__allocator_destructorINS_9allocatorINS_12basic_stringIcNS_11char_traitsIcEENS2_IcEEEEEEEELi1ELb0EE5__getB7v160006Ev, symObjAddr: 0x3BE0, symBinAddr: 0x10000678C, symSize: 0x14 }
  - { offsetInCU: 0xDCE3, offset: 0xDCE3, size: 0x8, addend: 0x0, symName: __ZNSt3__114__split_bufferIPNS_12basic_stringIcNS_11char_traitsIcEENS_9allocatorIcEEEERNS4_IS7_EEED2Ev, symObjAddr: 0x3BF4, symBinAddr: 0x1000067A0, symSize: 0x8C }
  - { offsetInCU: 0xDD0F, offset: 0xDD0F, size: 0x8, addend: 0x0, symName: __ZNSt3__114__split_bufferIPNS_12basic_stringIcNS_11char_traitsIcEENS_9allocatorIcEEEERNS4_IS7_EEE5clearB7v160006Ev, symObjAddr: 0x3C80, symBinAddr: 0x10000682C, symSize: 0x28 }
  - { offsetInCU: 0xDD35, offset: 0xDD35, size: 0x8, addend: 0x0, symName: __ZNKSt3__114__split_bufferIPNS_12basic_stringIcNS_11char_traitsIcEENS_9allocatorIcEEEERNS4_IS7_EEE8capacityB7v160006Ev, symObjAddr: 0x3CA8, symBinAddr: 0x100006854, symSize: 0x40 }
  - { offsetInCU: 0xDD5B, offset: 0xDD5B, size: 0x8, addend: 0x0, symName: __ZNSt3__114__split_bufferIPNS_12basic_stringIcNS_11char_traitsIcEENS_9allocatorIcEEEERNS4_IS7_EEE17__destruct_at_endB7v160006EPS7_, symObjAddr: 0x3CE8, symBinAddr: 0x100006894, symSize: 0x2C }
  - { offsetInCU: 0xDD8F, offset: 0xDD8F, size: 0x8, addend: 0x0, symName: __ZNSt3__114__split_bufferIPNS_12basic_stringIcNS_11char_traitsIcEENS_9allocatorIcEEEERNS4_IS7_EEE17__destruct_at_endB7v160006EPS7_NS_17integral_constantIbLb0EEE, symObjAddr: 0x3D14, symBinAddr: 0x1000068C0, symSize: 0x80 }
  - { offsetInCU: 0xDDCF, offset: 0xDDCF, size: 0x8, addend: 0x0, symName: __ZNKSt3__114__split_bufferIPNS_12basic_stringIcNS_11char_traitsIcEENS_9allocatorIcEEEERNS4_IS7_EEE9__end_capB7v160006Ev, symObjAddr: 0x3D94, symBinAddr: 0x100006940, symSize: 0x28 }
  - { offsetInCU: 0xDDF5, offset: 0xDDF5, size: 0x8, addend: 0x0, symName: __ZNKSt3__117__compressed_pairIPPNS_12basic_stringIcNS_11char_traitsIcEENS_9allocatorIcEEEERNS4_IS7_EEE5firstB7v160006Ev, symObjAddr: 0x3DBC, symBinAddr: 0x100006968, symSize: 0x24 }
  - { offsetInCU: 0xDE1B, offset: 0xDE1B, size: 0x8, addend: 0x0, symName: __ZNSt3__19allocatorINS_12basic_stringIcNS_11char_traitsIcEENS0_IcEEEEE9constructB7v160006IS5_JS5_EEEvPT_DpOT0_, symObjAddr: 0x3DE0, symBinAddr: 0x10000698C, symSize: 0x30 }
  - { offsetInCU: 0xDE71, offset: 0xDE71, size: 0x8, addend: 0x0, symName: __ZNSt3__112basic_stringIcNS_11char_traitsIcEENS_9allocatorIcEEEC1B7v160006EOS5_, symObjAddr: 0x3E10, symBinAddr: 0x1000069BC, symSize: 0x34 }
  - { offsetInCU: 0xDEAA, offset: 0xDEAA, size: 0x8, addend: 0x0, symName: __ZNSt3__112basic_stringIcNS_11char_traitsIcEENS_9allocatorIcEEEC2B7v160006EOS5_, symObjAddr: 0x3E44, symBinAddr: 0x1000069F0, symSize: 0x84 }
  - { offsetInCU: 0xDEE3, offset: 0xDEE3, size: 0x8, addend: 0x0, symName: __ZNSt3__112basic_stringIcNS_11char_traitsIcEENS_9allocatorIcEEE14__default_initB7v160006Ev, symObjAddr: 0x3EC8, symBinAddr: 0x100006A74, symSize: 0x40 }
  - { offsetInCU: 0xDF09, offset: 0xDF09, size: 0x8, addend: 0x0, symName: __ZNKSt3__112basic_stringIcNS_11char_traitsIcEENS_9allocatorIcEEE9__is_longB7v160006Ev, symObjAddr: 0x3F08, symBinAddr: 0x100006AB4, symSize: 0x38 }
  - { offsetInCU: 0xDF2F, offset: 0xDF2F, size: 0x8, addend: 0x0, symName: __ZNSt3__117__compressed_pairINS_12basic_stringIcNS_11char_traitsIcEENS_9allocatorIcEEE5__repES5_E5firstB7v160006Ev, symObjAddr: 0x3F54, symBinAddr: 0x100006B00, symSize: 0x24 }
  - { offsetInCU: 0xDF55, offset: 0xDF55, size: 0x8, addend: 0x0, symName: __ZNSt3__122__compressed_pair_elemINS_12basic_stringIcNS_11char_traitsIcEENS_9allocatorIcEEE5__repELi0ELb0EE5__getB7v160006Ev, symObjAddr: 0x3F78, symBinAddr: 0x100006B24, symSize: 0x14 }
  - { offsetInCU: 0xDF7B, offset: 0xDF7B, size: 0x8, addend: 0x0, symName: __ZNKSt3__117__compressed_pairINS_12basic_stringIcNS_11char_traitsIcEENS_9allocatorIcEEE5__repES5_E5firstB7v160006Ev, symObjAddr: 0x3F8C, symBinAddr: 0x100006B38, symSize: 0x24 }
  - { offsetInCU: 0xDFA1, offset: 0xDFA1, size: 0x8, addend: 0x0, symName: __ZNKSt3__122__compressed_pair_elemINS_12basic_stringIcNS_11char_traitsIcEENS_9allocatorIcEEE5__repELi0ELb0EE5__getB7v160006Ev, symObjAddr: 0x3FB0, symBinAddr: 0x100006B5C, symSize: 0x14 }
  - { offsetInCU: 0xDFC7, offset: 0xDFC7, size: 0x8, addend: 0x0, symName: __ZNSt3__15dequeINS_12basic_stringIcNS_11char_traitsIcEENS_9allocatorIcEEEENS4_IS6_EEE4backEv, symObjAddr: 0x3FC4, symBinAddr: 0x100006B70, symSize: 0x70 }
  - { offsetInCU: 0xDFFE, offset: 0xDFFE, size: 0x8, addend: 0x0, symName: __ZNKSt3__112basic_stringIcNS_11char_traitsIcEENS_9allocatorIcEEE4dataB7v160006Ev, symObjAddr: 0x4220, symBinAddr: 0x100006DCC, symSize: 0x28 }
  - { offsetInCU: 0xE024, offset: 0xE024, size: 0x8, addend: 0x0, symName: __ZNKSt3__112basic_stringIcNS_11char_traitsIcEENS_9allocatorIcEEE4sizeB7v160006Ev, symObjAddr: 0x4248, symBinAddr: 0x100006DF4, symSize: 0x54 }
  - { offsetInCU: 0xE068, offset: 0xE068, size: 0x8, addend: 0x0, symName: __ZNKSt3__113basic_ostreamIcNS_11char_traitsIcEEE6sentrycvbB7v160006Ev, symObjAddr: 0x429C, symBinAddr: 0x100006E48, symSize: 0x1C }
  - { offsetInCU: 0xE08E, offset: 0xE08E, size: 0x8, addend: 0x0, symName: __ZNSt3__119ostreambuf_iteratorIcNS_11char_traitsIcEEEC1B7v160006ERNS_13basic_ostreamIcS2_EE, symObjAddr: 0x44F8, symBinAddr: 0x1000070A4, symSize: 0x34 }
  - { offsetInCU: 0xE0C6, offset: 0xE0C6, size: 0x8, addend: 0x0, symName: __ZNKSt3__18ios_base5flagsB7v160006Ev, symObjAddr: 0x452C, symBinAddr: 0x1000070D8, symSize: 0x18 }
  - { offsetInCU: 0xE0EE, offset: 0xE0EE, size: 0x8, addend: 0x0, symName: __ZNKSt3__19basic_iosIcNS_11char_traitsIcEEE4fillB7v160006Ev, symObjAddr: 0x4544, symBinAddr: 0x1000070F0, symSize: 0x64 }
  - { offsetInCU: 0xE116, offset: 0xE116, size: 0x8, addend: 0x0, symName: __ZNKSt3__119ostreambuf_iteratorIcNS_11char_traitsIcEEE6failedB7v160006Ev, symObjAddr: 0x45A8, symBinAddr: 0x100007154, symSize: 0x24 }
  - { offsetInCU: 0xE13C, offset: 0xE13C, size: 0x8, addend: 0x0, symName: __ZNSt3__19basic_iosIcNS_11char_traitsIcEEE8setstateB7v160006Ej, symObjAddr: 0x45CC, symBinAddr: 0x100007178, symSize: 0x2C }
  - { offsetInCU: 0xE171, offset: 0xE171, size: 0x8, addend: 0x0, symName: __ZNKSt3__18ios_base5widthB7v160006Ev, symObjAddr: 0x45F8, symBinAddr: 0x1000071A4, symSize: 0x18 }
  - { offsetInCU: 0xE199, offset: 0xE199, size: 0x8, addend: 0x0, symName: __ZNSt3__115basic_streambufIcNS_11char_traitsIcEEE5sputnB7v160006EPKcl, symObjAddr: 0x4610, symBinAddr: 0x1000071BC, symSize: 0x3C }
  - { offsetInCU: 0xE1DB, offset: 0xE1DB, size: 0x8, addend: 0x0, symName: __ZNSt3__112basic_stringIcNS_11char_traitsIcEENS_9allocatorIcEEEC1B7v160006Emc, symObjAddr: 0x464C, symBinAddr: 0x1000071F8, symSize: 0x3C }
  - { offsetInCU: 0xE223, offset: 0xE223, size: 0x8, addend: 0x0, symName: __ZNSt3__18ios_base5widthB7v160006El, symObjAddr: 0x4688, symBinAddr: 0x100007234, symSize: 0x2C }
  - { offsetInCU: 0xE269, offset: 0xE269, size: 0x8, addend: 0x0, symName: __ZNSt3__112basic_stringIcNS_11char_traitsIcEENS_9allocatorIcEEEC2B7v160006Emc, symObjAddr: 0x46B4, symBinAddr: 0x100007260, symSize: 0x54 }
  - { offsetInCU: 0xE2B1, offset: 0xE2B1, size: 0x8, addend: 0x0, symName: __ZNSt3__119ostreambuf_iteratorIcNS_11char_traitsIcEEEC2B7v160006ERNS_13basic_ostreamIcS2_EE, symObjAddr: 0x4708, symBinAddr: 0x1000072B4, symSize: 0x54 }
  - { offsetInCU: 0xE2E9, offset: 0xE2E9, size: 0x8, addend: 0x0, symName: __ZNKSt3__19basic_iosIcNS_11char_traitsIcEEE5rdbufB7v160006Ev, symObjAddr: 0x475C, symBinAddr: 0x100007308, symSize: 0x24 }
  - { offsetInCU: 0xE311, offset: 0xE311, size: 0x8, addend: 0x0, symName: __ZNKSt3__18ios_base5rdbufB7v160006Ev, symObjAddr: 0x4780, symBinAddr: 0x10000732C, symSize: 0x18 }
  - { offsetInCU: 0xE337, offset: 0xE337, size: 0x8, addend: 0x0, symName: __ZNSt3__111char_traitsIcE11eq_int_typeEii, symObjAddr: 0x4798, symBinAddr: 0x100007344, symSize: 0x28 }
  - { offsetInCU: 0xE368, offset: 0xE368, size: 0x8, addend: 0x0, symName: __ZNSt3__111char_traitsIcE3eofEv, symObjAddr: 0x47C0, symBinAddr: 0x10000736C, symSize: 0x8 }
  - { offsetInCU: 0xE37C, offset: 0xE37C, size: 0x8, addend: 0x0, symName: __ZNKSt3__19basic_iosIcNS_11char_traitsIcEEE5widenB7v160006Ec, symObjAddr: 0x47C8, symBinAddr: 0x100007374, symSize: 0x84 }
  - { offsetInCU: 0xE3EA, offset: 0xE3EA, size: 0x8, addend: 0x0, symName: __ZNKSt3__15ctypeIcE5widenB7v160006Ec, symObjAddr: 0x4878, symBinAddr: 0x100007424, symSize: 0x38 }
  - { offsetInCU: 0xE41F, offset: 0xE41F, size: 0x8, addend: 0x0, symName: __ZNSt3__18ios_base8setstateB7v160006Ej, symObjAddr: 0x48B0, symBinAddr: 0x10000745C, symSize: 0x34 }
  - { offsetInCU: 0xE456, offset: 0xE456, size: 0x8, addend: 0x0, symName: __ZNKSt3__112basic_stringIcNS_11char_traitsIcEENS_9allocatorIcEEE13__get_pointerB7v160006Ev, symObjAddr: 0x48F8, symBinAddr: 0x1000074A4, symSize: 0x54 }
  - { offsetInCU: 0xE47C, offset: 0xE47C, size: 0x8, addend: 0x0, symName: __ZNKSt3__112basic_stringIcNS_11char_traitsIcEENS_9allocatorIcEEE18__get_long_pointerB7v160006Ev, symObjAddr: 0x494C, symBinAddr: 0x1000074F8, symSize: 0x28 }
  - { offsetInCU: 0xE4A2, offset: 0xE4A2, size: 0x8, addend: 0x0, symName: __ZNKSt3__112basic_stringIcNS_11char_traitsIcEENS_9allocatorIcEEE19__get_short_pointerB7v160006Ev, symObjAddr: 0x4974, symBinAddr: 0x100007520, symSize: 0x28 }
  - { offsetInCU: 0xE4C8, offset: 0xE4C8, size: 0x8, addend: 0x0, symName: __ZNSt3__114pointer_traitsIPKcE10pointer_toB7v160006ERS1_, symObjAddr: 0x499C, symBinAddr: 0x100007548, symSize: 0x14 }
  - { offsetInCU: 0xE4EB, offset: 0xE4EB, size: 0x8, addend: 0x0, symName: __ZNKSt3__112basic_stringIcNS_11char_traitsIcEENS_9allocatorIcEEE15__get_long_sizeB7v160006Ev, symObjAddr: 0x49B0, symBinAddr: 0x10000755C, symSize: 0x28 }
  - { offsetInCU: 0xE511, offset: 0xE511, size: 0x8, addend: 0x0, symName: __ZNKSt3__112basic_stringIcNS_11char_traitsIcEENS_9allocatorIcEEE16__get_short_sizeB7v160006Ev, symObjAddr: 0x49D8, symBinAddr: 0x100007584, symSize: 0x34 }
  - { offsetInCU: 0xE537, offset: 0xE537, size: 0x8, addend: 0x0, symName: __ZNSt3__15dequeINS_12basic_stringIcNS_11char_traitsIcEENS_9allocatorIcEEEENS4_IS6_EEE8pop_backEv, symObjAddr: 0x4A0C, symBinAddr: 0x1000075B8, symSize: 0xC0 }
  - { offsetInCU: 0xE57D, offset: 0xE57D, size: 0x8, addend: 0x0, symName: __ZNSt3__15dequeINS_12basic_stringIcNS_11char_traitsIcEENS_9allocatorIcEEEENS4_IS6_EEE25__maybe_remove_back_spareB7v160006Eb, symObjAddr: 0x4AE0, symBinAddr: 0x10000768C, symSize: 0xCC }
  - { offsetInCU: 0xE5B2, offset: 0xE5B2, size: 0x8, addend: 0x0, symName: __ZNKSt3__15dequeINS_12basic_stringIcNS_11char_traitsIcEENS_9allocatorIcEEEENS4_IS6_EEE19__back_spare_blocksB7v160006Ev, symObjAddr: 0x4BAC, symBinAddr: 0x100007758, symSize: 0x2C }
  - { offsetInCU: 0xE5D8, offset: 0xE5D8, size: 0x8, addend: 0x0, symName: __ZNSt3__114__split_bufferIPNS_12basic_stringIcNS_11char_traitsIcEENS_9allocatorIcEEEENS4_IS7_EEE4backB7v160006Ev, symObjAddr: 0x4BD8, symBinAddr: 0x100007784, symSize: 0x1C }
  - { offsetInCU: 0xE5FE, offset: 0xE5FE, size: 0x8, addend: 0x0, symName: __ZNSt3__114__split_bufferIPNS_12basic_stringIcNS_11char_traitsIcEENS_9allocatorIcEEEENS4_IS7_EEE8pop_backB7v160006Ev, symObjAddr: 0x4BF4, symBinAddr: 0x1000077A0, symSize: 0x2C }
...
